; Function Attrs: nounwind uwtable
define ptr @l_Std_Time_Internal_Bounded_LE_byEmod___boxed(ptr noundef %0, ptr noundef %1, ptr noundef readnone captures(none) %2) local_unnamed_addr #1 {
  %4 = ptrtoint ptr %0 to i64
  %5 = and i64 %4, 1
  %.not.i.i = icmp eq i64 %5, 0
  %.pre12 = ptrtoint ptr %1 to i64
  %.pre = and i64 %.pre12, 1
  %6 = icmp eq i64 %.pre, 0
  br i1 %.not.i.i, label %l_Std_Time_Internal_Bounded_LE_byEmod.exit, label %7, !prof !10

7:                                                ; preds = %3
  br i1 %6, label %l_Std_Time_Internal_Bounded_LE_byEmod.exit.thread16, label %9, !prof !10

l_Std_Time_Internal_Bounded_LE_byEmod.exit.thread16: ; preds = %7
  %8 = tail call ptr @lean_int_big_emod(ptr noundef %0, ptr noundef %1) #5
  br label %29

9:                                                ; preds = %7
  %10 = shl i64 %.pre12, 31
  %11 = icmp ult i64 %10, 4294967296
  br i1 %11, label %lean_dec.exit, label %12

12:                                               ; preds = %9
  %13 = ashr i64 %10, 32
  %14 = shl i64 %4, 31
  %15 = ashr i64 %14, 32
  %16 = srem i64 %15, %13
  %17 = icmp slt i64 %16, 0
  %.p.i.i = tail call i64 @llvm.abs.i64(i64 %13, i1 true)
  %18 = select i1 %17, i64 %.p.i.i, i64 0
  %.0.i.i = add nsw i64 %18, %16
  %19 = add nsw i64 %.0.i.i, 2147483648
  %20 = icmp samesign ult i64 %19, 4294967296
  br i1 %20, label %21, label %26, !prof !9

21:                                               ; preds = %12
  %22 = shl nsw i64 %.0.i.i, 1
  %23 = and i64 %22, 8589934590
  %24 = or disjoint i64 %23, 1
  %25 = inttoptr i64 %24 to ptr
  br label %lean_dec.exit

26:                                               ; preds = %12
  %27 = tail call ptr @lean_big_int64_to_int(i64 noundef range(i64 -4611686016279904256, 4611686018427387905) %.0.i.i) #5
  br label %lean_dec.exit

l_Std_Time_Internal_Bounded_LE_byEmod.exit:       ; preds = %3
  %28 = tail call ptr @lean_int_big_emod(ptr noundef %0, ptr noundef %1) #5
  br i1 %6, label %29, label %lean_dec.exit6.thread

29:                                               ; preds = %l_Std_Time_Internal_Bounded_LE_byEmod.exit.thread16, %l_Std_Time_Internal_Bounded_LE_byEmod.exit
  %30 = phi ptr [ %8, %l_Std_Time_Internal_Bounded_LE_byEmod.exit.thread16 ], [ %28, %l_Std_Time_Internal_Bounded_LE_byEmod.exit ]
  %31 = load i32, ptr %1, align 4, !tbaa !4
  %32 = icmp sgt i32 %31, 1
  br i1 %32, label %33, label %35, !prof !9

33:                                               ; preds = %29
  %34 = add nsw i32 %31, -1
  store i32 %34, ptr %1, align 4, !tbaa !4
  br label %lean_dec.exit6

35:                                               ; preds = %29
  %.not.i = icmp eq i32 %31, 0
  br i1 %.not.i, label %lean_dec.exit6, label %36

36:                                               ; preds = %35
  tail call void @lean_dec_ref_cold(ptr noundef nonnull %1) #5
  br label %lean_dec.exit6

lean_dec.exit6:                                   ; preds = %36, %35, %33
  br i1 %.not.i.i, label %lean_dec.exit6.thread, label %lean_dec.exit

lean_dec.exit6.thread:                            ; preds = %l_Std_Time_Internal_Bounded_LE_byEmod.exit, %lean_dec.exit6
  %.1.i.i1520 = phi ptr [ %30, %lean_dec.exit6 ], [ %28, %l_Std_Time_Internal_Bounded_LE_byEmod.exit ]
  %37 = load i32, ptr %0, align 4, !tbaa !4
  %38 = icmp sgt i32 %37, 1
  br i1 %38, label %39, label %41, !prof !9

39:                                               ; preds = %lean_dec.exit6.thread
  %40 = add nsw i32 %37, -1
  store i32 %40, ptr %0, align 4, !tbaa !4
  br label %lean_dec.exit

41:                                               ; preds = %lean_dec.exit6.thread
  %.not.i7 = icmp eq i32 %37, 0
  br i1 %.not.i7, label %lean_dec.exit, label %42

42:                                               ; preds = %41
  tail call void @lean_dec_ref_cold(ptr noundef nonnull %0) #5
  br label %lean_dec.exit

lean_dec.exit:                                    ; preds = %9, %21, %26, %42, %41, %39, %lean_dec.exit6
  %.1.i.i1519 = phi ptr [ %.1.i.i1520, %42 ], [ %.1.i.i1520, %41 ], [ %.1.i.i1520, %39 ], [ %30, %lean_dec.exit6 ], [ %27, %26 ], [ %25, %21 ], [ %0, %9 ]
  ret ptr %.1.i.i1519
}